target datalayout = "e-m:e-p270:32:32-p271:32:32-p272:64:64-i64:64-i128:128-f80:128-n8:16:32:64-S128"
target triple = "x86_64-unknown-linux-gnu"

%"class.icu_75::UnicodeString" = type { %"class.icu_75::Replaceable", %"union.icu_75::UnicodeString::StackBufferOrFields" }
%"class.icu_75::Replaceable" = type { %"class.icu_75::UObject" }
%"class.icu_75::UObject" = type { ptr }
%"union.icu_75::UnicodeString::StackBufferOrFields" = type { %struct.anon.0, [32 x i8] }
%struct.anon.0 = type { i16, i32, i32, ptr }
%class.IcuTestErrorCode = type { %"class.icu_75::ErrorCode.base", ptr, ptr, %"class.icu_75::UnicodeString" }
%"class.icu_75::ErrorCode.base" = type <{ ptr, i32 }>
%"class.icu_75::ErrorCode" = type <{ ptr, i32, [4 x i8] }>

@_ZTV16IcuTestErrorCode = unnamed_addr constant { [5 x ptr] } { [5 x ptr] [ptr null, ptr @_ZTI16IcuTestErrorCode, ptr @_ZN16IcuTestErrorCodeD1Ev, ptr @_ZN16IcuTestErrorCodeD0Ev, ptr @_ZNK16IcuTestErrorCode13handleFailureEv] }, align 8

; Function Attrs: mustprogress nounwind uwtable
define internal noundef signext i8 @_ZL9U_FAILURE10UErrorCode(i32 noundef %code) #0 {
entry:
  %code.addr = alloca i32, align 4
  store i32 %code, ptr %code.addr, align 4
  %0 = load i32, ptr %code.addr, align 4
  %cmp = icmp sgt i32 %0, 0
  %conv = zext i1 %cmp to i8
  ret i8 %conv
}

; Function Attrs: mustprogress nounwind uwtable
define linkonce_odr noundef signext i8 @_ZNK6icu_759ErrorCode9isFailureEv(ptr noundef nonnull align 8 dereferenceable(12) %this) #0 comdat align 2 {
entry:
  %this.addr = alloca ptr, align 8
  store ptr %this, ptr %this.addr, align 8
  %this1 = load ptr, ptr %this.addr, align 8
  %errorCode = getelementptr inbounds %"class.icu_75::ErrorCode", ptr %this1, i32 0, i32 1
  %0 = load i32, ptr %errorCode, align 8
  %call = call noundef signext i8 @_ZL9U_FAILURE10UErrorCode(i32 noundef %0)
  ret i8 %call
}

; Function Attrs: mustprogress nounwind uwtable
define void @_ZN16IcuTestErrorCodeD2Ev(ptr noundef nonnull align 8 dereferenceable(96) %this) unnamed_addr #0 align 2 personality ptr @__gxx_personality_v0 {
entry:
  %this.addr = alloca ptr, align 8
  %ref.tmp = alloca %"class.icu_75::UnicodeString", align 8
  store ptr %this, ptr %this.addr, align 8
  %this1 = load ptr, ptr %this.addr, align 8
  store ptr getelementptr inbounds ({ [5 x ptr] }, ptr @_ZTV16IcuTestErrorCode, i32 0, i32 0, i32 2), ptr %this1, align 8
  %call = invoke noundef signext i8 @_ZNK6icu_759ErrorCode9isFailureEv(ptr noundef nonnull align 8 dereferenceable(12) %this1)
          to label %invoke.cont unwind label %terminate.lpad

invoke.cont:                                      ; preds = %entry
  %tobool = icmp ne i8 %call, 0
  br i1 %tobool, label %if.then, label %if.end

if.then:                                          ; preds = %invoke.cont
  invoke void @_ZN6icu_7513UnicodeStringC1EPKDs(ptr noundef nonnull align 8 dereferenceable(64) %ref.tmp, ptr noundef @.str)
          to label %invoke.cont2 unwind label %terminate.lpad

invoke.cont2:                                     ; preds = %if.then
  invoke void @_ZNK16IcuTestErrorCode6errlogEaRKN6icu_7513UnicodeStringEPKc(ptr noundef nonnull align 8 dereferenceable(96) %this1, i8 noundef signext 0, ptr noundef nonnull align 8 dereferenceable(64) %ref.tmp, ptr noundef null)
          to label %invoke.cont3 unwind label %terminate.lpad

invoke.cont3:                                     ; preds = %invoke.cont2
  call void @_ZN6icu_7513UnicodeStringD1Ev(ptr noundef nonnull align 8 dereferenceable(64) %ref.tmp) #11
  br label %if.end

if.end:                                           ; preds = %invoke.cont3, %invoke.cont
  %scopeMessage = getelementptr inbounds %class.IcuTestErrorCode, ptr %this1, i32 0, i32 3
  call void @_ZN6icu_7513UnicodeStringD1Ev(ptr noundef nonnull align 8 dereferenceable(64) %scopeMessage) #11
  call void @_ZN6icu_759ErrorCodeD2Ev(ptr noundef nonnull align 8 dereferenceable(12) %this1) #11
  ret void

terminate.lpad:                                   ; preds = %invoke.cont2, %if.then, %entry
  %0 = landingpad { ptr, i32 }
          catch ptr null
  %1 = extractvalue { ptr, i32 } %0, 0
  call void @__clang_call_terminate(ptr %1) #13
  unreachable
}